; Function Attrs: mustprogress uwtable
define void @_ZN2cv4gapi12findContoursERKNS_4GMatENS_14RetrievalModesENS_25ContourApproximationModesERKNS_7GOpaqueINS_6Point_IiEEEE(ptr dead_on_unwind noalias writable sret(%"class.cv::GArray.5") align 8 %0, ptr nocapture noundef nonnull readonly align 8 dereferenceable(16) %1, i32 noundef %2, i32 noundef %3, ptr nocapture noundef nonnull readonly align 8 dereferenceable(32) %4) local_unnamed_addr #3 personality ptr @__gxx_personality_v0 {
  %6 = alloca %"class.cv::GMat", align 8
  %7 = alloca %"class.cv::GOpaque", align 8
  %8 = load ptr, ptr %1, align 8
  store ptr %8, ptr %6, align 8
  %9 = getelementptr inbounds i8, ptr %6, i64 8
  %10 = getelementptr inbounds i8, ptr %1, i64 8
  %11 = load ptr, ptr %10, align 8
  store ptr %11, ptr %9, align 8
  %.not.i.i.i.i = icmp eq ptr %11, null
  br i1 %.not.i.i.i.i, label %_ZN2cv4GMatC2ERKS0_.exit, label %12

12:                                               ; preds = %5
  %13 = getelementptr inbounds i8, ptr %11, i64 8
  %14 = load i8, ptr @__libc_single_threaded, align 1
  %.not.i.i.i.i.i = icmp eq i8 %14, 0
  br i1 %.not.i.i.i.i.i, label %18, label %15

15:                                               ; preds = %12
  %16 = load i32, ptr %13, align 4
  %17 = add nsw i32 %16, 1
  store i32 %17, ptr %13, align 4
  br label %_ZN2cv4GMatC2ERKS0_.exit

18:                                               ; preds = %12
  %19 = atomicrmw volatile add ptr %13, i32 1 acq_rel, align 4
  br label %_ZN2cv4GMatC2ERKS0_.exit

_ZN2cv4GMatC2ERKS0_.exit:                         ; preds = %5, %15, %18
  %20 = load ptr, ptr %4, align 8
  store ptr %20, ptr %7, align 8
  %21 = getelementptr inbounds i8, ptr %7, i64 8
  %22 = getelementptr inbounds i8, ptr %4, i64 8
  %23 = load ptr, ptr %22, align 8
  store ptr %23, ptr %21, align 8
  %.not.i.i.i.i.i5 = icmp eq ptr %23, null
  br i1 %.not.i.i.i.i.i5, label %_ZNSt10shared_ptrIN2cv7GOriginEEC2ERKS2_.exit.i.i, label %24

24:                                               ; preds = %_ZN2cv4GMatC2ERKS0_.exit
  %25 = getelementptr inbounds i8, ptr %23, i64 8
  %26 = load i8, ptr @__libc_single_threaded, align 1
  %.not.i.i.i.i.i.i = icmp eq i8 %26, 0
  br i1 %.not.i.i.i.i.i.i, label %30, label %27

27:                                               ; preds = %24
  %28 = load i32, ptr %25, align 4
  %29 = add nsw i32 %28, 1
  store i32 %29, ptr %25, align 4
  br label %_ZNSt10shared_ptrIN2cv7GOriginEEC2ERKS2_.exit.i.i

30:                                               ; preds = %24
  %31 = atomicrmw volatile add ptr %25, i32 1 acq_rel, align 4
  br label %_ZNSt10shared_ptrIN2cv7GOriginEEC2ERKS2_.exit.i.i

_ZNSt10shared_ptrIN2cv7GOriginEEC2ERKS2_.exit.i.i: ; preds = %30, %27, %_ZN2cv4GMatC2ERKS0_.exit
  %32 = getelementptr inbounds i8, ptr %7, i64 16
  %33 = getelementptr inbounds i8, ptr %4, i64 16
  %34 = load ptr, ptr %33, align 8
  store ptr %34, ptr %32, align 8
  %35 = getelementptr inbounds i8, ptr %7, i64 24
  %36 = getelementptr inbounds i8, ptr %4, i64 24
  %37 = load ptr, ptr %36, align 8
  store ptr %37, ptr %35, align 8
  %.not.i.i.i3.i.i = icmp eq ptr %37, null
  br i1 %.not.i.i.i3.i.i, label %_ZN2cv7GOpaqueINS_6Point_IiEEEC2ERKS3_.exit, label %38

38:                                               ; preds = %_ZNSt10shared_ptrIN2cv7GOriginEEC2ERKS2_.exit.i.i
  %39 = getelementptr inbounds i8, ptr %37, i64 8
  %40 = load i8, ptr @__libc_single_threaded, align 1
  %.not.i.i.i.i4.i.i = icmp eq i8 %40, 0
  br i1 %.not.i.i.i.i4.i.i, label %44, label %41

41:                                               ; preds = %38
  %42 = load i32, ptr %39, align 4
  %43 = add nsw i32 %42, 1
  store i32 %43, ptr %39, align 4
  br label %_ZN2cv7GOpaqueINS_6Point_IiEEEC2ERKS3_.exit

44:                                               ; preds = %38
  %45 = atomicrmw volatile add ptr %39, i32 1 acq_rel, align 4
  br label %_ZN2cv7GOpaqueINS_6Point_IiEEEC2ERKS3_.exit

_ZN2cv7GOpaqueINS_6Point_IiEEEC2ERKS3_.exit:      ; preds = %_ZNSt10shared_ptrIN2cv7GOriginEEC2ERKS2_.exit.i.i, %41, %44
  invoke void @_ZN2cv11GKernelTypeINS_4gapi7imgproc13GFindContoursESt8functionIFNS_6GArrayINS5_INS_6Point_IiEEEEEENS_4GMatENS_14RetrievalModesENS_25ContourApproximationModesENS_7GOpaqueIS7_EEEEE2onESA_SB_SC_SE_(ptr dead_on_unwind writable sret(%"class.cv::GArray.5") align 8 %0, ptr noundef nonnull %6, i32 noundef %2, i32 noundef %3, ptr noundef nonnull %7)
          to label %46 unwind label %82

46:                                               ; preds = %_ZN2cv7GOpaqueINS_6Point_IiEEEC2ERKS3_.exit
  call void @_ZN2cv6detail8GOpaqueUD2Ev(ptr noundef nonnull align 8 dereferenceable(32) %7) #18
  %47 = load ptr, ptr %9, align 8
  %.not.i.i.i.i6 = icmp eq ptr %47, null
  br i1 %.not.i.i.i.i6, label %_ZN2cv4GMatD2Ev.exit, label %48

48:                                               ; preds = %46
  %49 = getelementptr inbounds i8, ptr %47, i64 8
  %50 = load atomic i64, ptr %49 acquire, align 8
  %51 = icmp eq i64 %50, 4294967297
  %52 = trunc i64 %50 to i32
  br i1 %51, label %53, label %58

53:                                               ; preds = %48
  store i32 0, ptr %49, align 8
  %54 = getelementptr inbounds i8, ptr %47, i64 12
  store i32 0, ptr %54, align 4
  %55 = load ptr, ptr %47, align 8
  %56 = getelementptr inbounds i8, ptr %55, i64 16
  %57 = load ptr, ptr %56, align 8
  call void %57(ptr noundef nonnull align 8 dereferenceable(16) %47) #18
  br label %_ZNSt16_Sp_counted_baseILN9__gnu_cxx12_Lock_policyE2EE24_M_release_last_use_coldEv.exit.sink.split.i.i.i.i.i

58:                                               ; preds = %48
  %59 = load i8, ptr @__libc_single_threaded, align 1
  %.not.i.i.i.i.i7 = icmp eq i8 %59, 0
  br i1 %.not.i.i.i.i.i7, label %62, label %60

60:                                               ; preds = %58
  %61 = add nsw i32 %52, -1
  store i32 %61, ptr %49, align 4
  br label %64

62:                                               ; preds = %58
  %63 = atomicrmw volatile add ptr %49, i32 -1 acq_rel, align 4
  br label %64

64:                                               ; preds = %62, %60
  %.0.i.i.i.i.i = phi i32 [ %52, %60 ], [ %63, %62 ]
  %65 = icmp eq i32 %.0.i.i.i.i.i, 1
  br i1 %65, label %66, label %_ZN2cv4GMatD2Ev.exit

66:                                               ; preds = %64
  %67 = load ptr, ptr %47, align 8
  %68 = getelementptr inbounds i8, ptr %67, i64 16
  %69 = load ptr, ptr %68, align 8
  call void %69(ptr noundef nonnull align 8 dereferenceable(16) %47) #18
  %70 = getelementptr inbounds i8, ptr %47, i64 12
  %71 = load i8, ptr @__libc_single_threaded, align 1
  %.not.i.i.i.i.i.i.i = icmp eq i8 %71, 0
  br i1 %.not.i.i.i.i.i.i.i, label %75, label %72

72:                                               ; preds = %66
  %73 = load i32, ptr %70, align 4
  %74 = add nsw i32 %73, -1
  store i32 %74, ptr %70, align 4
  br label %77

75:                                               ; preds = %66
  %76 = atomicrmw volatile add ptr %70, i32 -1 acq_rel, align 4
  br label %77

77:                                               ; preds = %75, %72
  %.0.i.i.i.i.i.i.i = phi i32 [ %73, %72 ], [ %76, %75 ]
  %78 = icmp eq i32 %.0.i.i.i.i.i.i.i, 1
  br i1 %78, label %_ZNSt16_Sp_counted_baseILN9__gnu_cxx12_Lock_policyE2EE24_M_release_last_use_coldEv.exit.sink.split.i.i.i.i.i, label %_ZN2cv4GMatD2Ev.exit

_ZNSt16_Sp_counted_baseILN9__gnu_cxx12_Lock_policyE2EE24_M_release_last_use_coldEv.exit.sink.split.i.i.i.i.i: ; preds = %77, %53
  %79 = load ptr, ptr %47, align 8
  %80 = getelementptr inbounds i8, ptr %79, i64 24
  %81 = load ptr, ptr %80, align 8
  call void %81(ptr noundef nonnull align 8 dereferenceable(16) %47) #18
  br label %_ZN2cv4GMatD2Ev.exit

_ZN2cv4GMatD2Ev.exit:                             ; preds = %46, %64, %77, %_ZNSt16_Sp_counted_baseILN9__gnu_cxx12_Lock_policyE2EE24_M_release_last_use_coldEv.exit.sink.split.i.i.i.i.i
  ret void

82:                                               ; preds = %_ZN2cv7GOpaqueINS_6Point_IiEEEC2ERKS3_.exit
  %83 = landingpad { ptr, i32 }
          cleanup
  call void @_ZN2cv6detail8GOpaqueUD2Ev(ptr noundef nonnull align 8 dereferenceable(32) %7) #18
  call void @_ZN2cv4GMatD2Ev(ptr noundef nonnull align 8 dereferenceable(16) %6) #18
  resume { ptr, i32 } %83
}